Certificate:
    Data:
        Version: 1 (0x0)
        Serial Number: 1 (0x1)
    Signature Algorithm: md5WithRSAEncryption
        Issuer: C=US, ST=Unset, L=Unset, O=Unset, CN=www.example.com
        Validity
            Not Before: Jul 25 17:04:00 2013 GMT
            Not After : Jul 25 17:04:00 2014 GMT
        Subject: C=US, ST=Unset, O=Unset, CN=www.example.com
        Subject Public Key Info:
            Public Key Algorithm: rsaEncryption
                Public-Key: (1024 bit)
                Modulus:
                    00:e3:af:ab:6b:44:5b:bc:12:f3:ba:0a:69:ef:36:
                    03:06:03:76:07:c6:7f:a7:d4:e1:fd:01:de:eb:3b:
                    65:85:e1:ae:f9:8d:82:1e:8c:4e:90:d1:ec:7a:26:
                    d8:3c:5a:2f:b8:0b:7b:df:8c:ee:0a:df:dd:48:d5:
                    92:75:ed:5d:e7:b1:0e:b6:a8:2d:7f:17:a4:66:a9:
                    a6:8c:86:99:f3:fc:81:a8:db:7b:7a:e6:53:6a:80:
                    c6:3d:7e:5e:1f:0c:cd:77:c3:9f:eb:f9:b5:97:16:
                    df:b1:ef:ab:50:18:11:cf:6f:ec:0a:74:ce:52:dd:
                    82:44:56:18:8e:50:a1:fb:13
                Exponent: 65537 (0x10001)
    Signature Algorithm: md5WithRSAEncryption
         d6:b0:8a:4a:18:59:16:2a:52:7a:c3:53:ba:8a:1c:00:02:20:
         de:ee:97:b1:21:43:99:97:48:5f:d3:ed:e9:13:89:50:3c:72:
         f3:24:ed:c0:14:6c:3b:0e:11:8f:c9:2f:f1:ef:c9:61:b9:a3:
         41:06:e6:d0:9c:4b:97:d1:b2:a1:c5:64:d6:51:54:38:8e:31:
         ee:81:ce:e3:a4:e4:c5:0e:67:f4:de:f3:8b:2b:80:52:44:bc:
         32:7f:44:5e:2e:e5:94:7b:8e:a5:aa:d6:6e:f5:ba:36:7c:31:
         d0:68:98:df:fe:9c:1e:07:5f:c8:74:56:5e:25:45:0a:31:9b:
         e0:e8
-----BEGIN CERTIFICATE-----
MIICDTCCAXYCAQEwDQYJKoZIhvcNAQEEBQAwVzELMAkGA1UEBhMCVVMxDjAMBgNV
BAgTBVVuc2V0MQ4wDAYDVQQHEwVVbnNldDEOMAwGA1UEChMFVW5zZXQxGDAWBgNV
BAMTD3d3dy5leGFtcGxlLmNvbTAeFw0xMzA3MjUxNzA0MDBaFw0xNDA3MjUxNzA0
MDBaMEcxCzAJBgNVBAYTAlVTMQ4wDAYDVQQIEwVVbnNldDEOMAwGA1UEChMFVW5z
ZXQxGDAWBgNVBAMTD3d3dy5leGFtcGxlLmNvbTCBnzANBgkqhkiG9w0BAQEFAAOB
jQAwgYkCgYEA46+ra0RbvBLzugpp7zYDBgN2B8Z/p9Th/QHe6ztlheGu+Y2CHoxO
kNHseibYPFovuAt734zuCt/dSNWSde1d57EOtqgtfxekZqmmjIaZ8/yBqNt7euZT
aoDGPX5eHwzNd8Of6/m1lxbfse+rUBgRz2/sCnTOUt2CRFYYjlCh+xMCAwEAATAN
BgkqhkiG9w0BAQQFAAOBgQDWsIpKGFkWKlJ6w1O6ihwAAiDe7pexIUOZl0hf0+3p
E4lQPHLzJO3AFGw7DhGPyS/x78lhuaNBBubQnEuX0bKhxWTWUVQ4jjHugc7jpOTF
Dmf03vOLK4BSRLwyf0ReLuWUe46lqtZu9bo2fDHQaJjf/pweB1/IdFZeJUUKMZvg
6A==
-----END CERTIFICATE-----
